; Function Attrs: nounwind uwtable
define void @Abc_ObjBetterTransferFanout(ptr noundef %0, ptr noundef %1, i32 noundef %2) local_unnamed_addr #0 {
  %4 = getelementptr i8, ptr %0, i64 44
  %.val67 = load i32, ptr %4, align 4, !tbaa !58
  %5 = icmp sgt i32 %.val67, 0
  br i1 %5, label %.lr.ph, label %._crit_edge

.lr.ph:                                           ; preds = %3
  %6 = getelementptr i8, ptr %0, i64 48
  %7 = ptrtoint ptr %1 to i64
  %8 = icmp ne i32 %2, 0
  %9 = zext i1 %8 to i64
  %10 = xor i64 %9, %7
  %11 = inttoptr i64 %10 to ptr
  br label %12

12:                                               ; preds = %.lr.ph, %12
  %.val = load ptr, ptr %0, align 8, !tbaa !52
  %.val5 = load ptr, ptr %6, align 8, !tbaa !57
  %13 = getelementptr i8, ptr %.val, i64 32
  %.val.val = load ptr, ptr %13, align 8, !tbaa !56
  %.val5.val = load i32, ptr %.val5, align 4, !tbaa !48
  %14 = getelementptr i8, ptr %.val.val, i64 8
  %.val.val.val = load ptr, ptr %14, align 8, !tbaa !28
  %15 = sext i32 %.val5.val to i64
  %16 = getelementptr inbounds ptr, ptr %.val.val.val, i64 %15
  %17 = load ptr, ptr %16, align 8, !tbaa !51
  tail call void @Abc_ObjPatchFanin(ptr noundef %17, ptr noundef nonnull %0, ptr noundef %11) #18
  %.val6 = load i32, ptr %4, align 4, !tbaa !58
  %18 = icmp sgt i32 %.val6, 0
  br i1 %18, label %12, label %._crit_edge, !llvm.loop !103

._crit_edge:                                      ; preds = %12, %3
  ret void
}